; Function Attrs: mustprogress uwtable
define void @_ZN19OpenColorIO_v2_4dev4LookC2Ev(ptr nocapture noundef nonnull writeonly align 8 dereferenceable(8) %this) unnamed_addr #0 align 2 personality ptr @__gxx_personality_v0 {
entry:
  %call = tail call noalias noundef nonnull dereferenceable(128) ptr @_Znwm(i64 noundef 128) #11
  tail call void @_ZNSt7__cxx1112basic_stringIcSt11char_traitsIcESaIcEEC1Ev(ptr noundef nonnull align 8 dereferenceable(32) %call) #12
  %m_processSpace.i = getelementptr inbounds i8, ptr %call, i64 32
  tail call void @_ZNSt7__cxx1112basic_stringIcSt11char_traitsIcESaIcEEC1Ev(ptr noundef nonnull align 8 dereferenceable(32) %m_processSpace.i) #12
  %m_description.i = getelementptr inbounds i8, ptr %call, i64 64
  tail call void @_ZNSt7__cxx1112basic_stringIcSt11char_traitsIcESaIcEEC1Ev(ptr noundef nonnull align 8 dereferenceable(32) %m_description.i) #12
  %m_transform.i = getelementptr inbounds i8, ptr %call, i64 96
  tail call void @llvm.memset.p0.i64(ptr noundef nonnull align 8 dereferenceable(32) %m_transform.i, i8 0, i64 32, i1 false)
  store ptr %call, ptr %this, align 8
  ret void
}